target datalayout = "e-m:e-p270:32:32-p271:32:32-p272:64:64-i64:64-i128:128-f80:128-n8:16:32:64-S128"
target triple = "x86_64-pc-linux-gnu"

%struct._cms_typehandler_struct = type { i32, ptr, ptr, ptr, ptr, ptr, i32 }
%struct._cms_io_handler = type { ptr, ptr, i32, i32, [256 x i8], ptr, ptr, ptr, ptr, ptr }
%struct._cmsStage_struct = type { ptr, i32, i32, i32, i32, ptr, ptr, ptr, ptr, ptr }
%struct._cmsStageCLutData = type { %union.anon, ptr, i32, i32 }
%union.anon = type { ptr }

; Function Attrs: nounwind uwtable
define internal ptr @Type_MPEclut_Read(ptr noundef %0, ptr noundef %1, ptr noundef %2, i32 noundef %3) #0 {
  %5 = alloca ptr, align 8
  %6 = alloca ptr, align 8
  %7 = alloca ptr, align 8
  %8 = alloca ptr, align 8
  %9 = alloca i32, align 4
  %10 = alloca ptr, align 8
  %11 = alloca i16, align 2
  %12 = alloca i16, align 2
  %13 = alloca [16 x i8], align 16
  %14 = alloca i32, align 4
  %15 = alloca i32, align 4
  %16 = alloca [15 x i32], align 16
  %17 = alloca ptr, align 8
  store ptr %0, ptr %6, align 8
  store ptr %1, ptr %7, align 8
  store ptr %2, ptr %8, align 8
  store i32 %3, ptr %9, align 4
  store ptr null, ptr %10, align 8
  %18 = load ptr, ptr %7, align 8
  %19 = call i32 @_cmsReadUInt16Number(ptr noundef %18, ptr noundef %11)
  %20 = icmp ne i32 %19, 0
  br i1 %20, label %22, label %21

21:                                               ; preds = %4
  store ptr null, ptr %5, align 8
  br label %136

22:                                               ; preds = %4
  %23 = load ptr, ptr %7, align 8
  %24 = call i32 @_cmsReadUInt16Number(ptr noundef %23, ptr noundef %12)
  %25 = icmp ne i32 %24, 0
  br i1 %25, label %27, label %26

26:                                               ; preds = %22
  store ptr null, ptr %5, align 8
  br label %136

27:                                               ; preds = %22
  %28 = load i16, ptr %11, align 2
  %29 = zext i16 %28 to i32
  %30 = icmp eq i32 %29, 0
  br i1 %30, label %35, label %31

31:                                               ; preds = %27
  %32 = load i16, ptr %11, align 2
  %33 = zext i16 %32 to i32
  %34 = icmp sge i32 %33, 16
  br i1 %34, label %35, label %36

35:                                               ; preds = %31, %27
  br label %129

36:                                               ; preds = %31
  %37 = load i16, ptr %12, align 2
  %38 = zext i16 %37 to i32
  %39 = icmp eq i32 %38, 0
  br i1 %39, label %44, label %40

40:                                               ; preds = %36
  %41 = load i16, ptr %12, align 2
  %42 = zext i16 %41 to i32
  %43 = icmp sge i32 %42, 16
  br i1 %43, label %44, label %45

44:                                               ; preds = %40, %36
  br label %129

45:                                               ; preds = %40
  %46 = load ptr, ptr %7, align 8
  %47 = getelementptr inbounds %struct._cms_io_handler, ptr %46, i32 0, i32 5
  %48 = load ptr, ptr %47, align 8
  %49 = load ptr, ptr %7, align 8
  %50 = getelementptr inbounds [16 x i8], ptr %13, i64 0, i64 0
  %51 = call i32 %48(ptr noundef %49, ptr noundef %50, i32 noundef 1, i32 noundef 16)
  %52 = icmp ne i32 %51, 16
  br i1 %52, label %53, label %54

53:                                               ; preds = %45
  br label %129

54:                                               ; preds = %45
  %55 = load i16, ptr %11, align 2
  %56 = zext i16 %55 to i32
  %57 = icmp sgt i32 %56, 15
  br i1 %57, label %58, label %59

58:                                               ; preds = %54
  br label %62

59:                                               ; preds = %54
  %60 = load i16, ptr %11, align 2
  %61 = zext i16 %60 to i32
  br label %62

62:                                               ; preds = %59, %58
  %63 = phi i32 [ 15, %58 ], [ %61, %59 ]
  store i32 %63, ptr %15, align 4
  store i32 0, ptr %14, align 4
  br label %64

64:                                               ; preds = %85, %62
  %65 = load i32, ptr %14, align 4
  %66 = load i32, ptr %15, align 4
  %67 = icmp ult i32 %65, %66
  br i1 %67, label %68, label %88

68:                                               ; preds = %64
  %69 = load i32, ptr %14, align 4
  %70 = zext i32 %69 to i64
  %71 = getelementptr inbounds [16 x i8], ptr %13, i64 0, i64 %70
  %72 = load i8, ptr %71, align 1
  %73 = zext i8 %72 to i32
  %74 = icmp eq i32 %73, 1
  br i1 %74, label %75, label %76

75:                                               ; preds = %68
  br label %129

76:                                               ; preds = %68
  %77 = load i32, ptr %14, align 4
  %78 = zext i32 %77 to i64
  %79 = getelementptr inbounds [16 x i8], ptr %13, i64 0, i64 %78
  %80 = load i8, ptr %79, align 1
  %81 = zext i8 %80 to i32
  %82 = load i32, ptr %14, align 4
  %83 = zext i32 %82 to i64
  %84 = getelementptr inbounds [15 x i32], ptr %16, i64 0, i64 %83
  store i32 %81, ptr %84, align 4
  br label %85

85:                                               ; preds = %76
  %86 = load i32, ptr %14, align 4
  %87 = add i32 %86, 1
  store i32 %87, ptr %14, align 4
  br label %64, !llvm.loop !88

88:                                               ; preds = %64
  %89 = load ptr, ptr %6, align 8
  %90 = getelementptr inbounds %struct._cms_typehandler_struct, ptr %89, i32 0, i32 5
  %91 = load ptr, ptr %90, align 8
  %92 = getelementptr inbounds [15 x i32], ptr %16, i64 0, i64 0
  %93 = load i16, ptr %11, align 2
  %94 = zext i16 %93 to i32
  %95 = load i16, ptr %12, align 2
  %96 = zext i16 %95 to i32
  %97 = call ptr @cmsStageAllocCLutFloatGranular(ptr noundef %91, ptr noundef %92, i32 noundef %94, i32 noundef %96, ptr noundef null)
  store ptr %97, ptr %10, align 8
  %98 = load ptr, ptr %10, align 8
  %99 = icmp eq ptr %98, null
  br i1 %99, label %100, label %101

100:                                              ; preds = %88
  br label %129

101:                                              ; preds = %88
  %102 = load ptr, ptr %10, align 8
  %103 = getelementptr inbounds %struct._cmsStage_struct, ptr %102, i32 0, i32 8
  %104 = load ptr, ptr %103, align 8
  store ptr %104, ptr %17, align 8
  store i32 0, ptr %14, align 4
  br label %105

105:                                              ; preds = %123, %101
  %106 = load i32, ptr %14, align 4
  %107 = load ptr, ptr %17, align 8
  %108 = getelementptr inbounds %struct._cmsStageCLutData, ptr %107, i32 0, i32 2
  %109 = load i32, ptr %108, align 8
  %110 = icmp ult i32 %106, %109
  br i1 %110, label %111, label %126

111:                                              ; preds = %105
  %112 = load ptr, ptr %7, align 8
  %113 = load ptr, ptr %17, align 8
  %114 = getelementptr inbounds %struct._cmsStageCLutData, ptr %113, i32 0, i32 0
  %115 = load ptr, ptr %114, align 8
  %116 = load i32, ptr %14, align 4
  %117 = zext i32 %116 to i64
  %118 = getelementptr inbounds float, ptr %115, i64 %117
  %119 = call i32 @_cmsReadFloat32Number(ptr noundef %112, ptr noundef %118)
  %120 = icmp ne i32 %119, 0
  br i1 %120, label %122, label %121

121:                                              ; preds = %111
  br label %129

122:                                              ; preds = %111
  br label %123

123:                                              ; preds = %122
  %124 = load i32, ptr %14, align 4
  %125 = add i32 %124, 1
  store i32 %125, ptr %14, align 4
  br label %105, !llvm.loop !89

126:                                              ; preds = %105
  %127 = load ptr, ptr %8, align 8
  store i32 1, ptr %127, align 4
  %128 = load ptr, ptr %10, align 8
  store ptr %128, ptr %5, align 8
  br label %136

129:                                              ; preds = %121, %100, %75, %53, %44, %35
  %130 = load ptr, ptr %8, align 8
  store i32 0, ptr %130, align 4
  %131 = load ptr, ptr %10, align 8
  %132 = icmp ne ptr %131, null
  br i1 %132, label %133, label %135

133:                                              ; preds = %129
  %134 = load ptr, ptr %10, align 8
  call void @cmsStageFree(ptr noundef %134)
  br label %135

135:                                              ; preds = %133, %129
  store ptr null, ptr %5, align 8
  br label %136

136:                                              ; preds = %135, %126, %26, %21
  %137 = load ptr, ptr %5, align 8
  ret ptr %137
}