; Function Attrs: nounwind uwtable
define internal ptr @Type_MPEclut_Read(ptr nocapture noundef readonly %0, ptr noundef %1, ptr nocapture noundef writeonly %2, i32 %3) #0 {
  %5 = alloca i16, align 2
  %6 = alloca i16, align 2
  %7 = alloca [16 x i8], align 16
  %8 = alloca [15 x i32], align 16
  %9 = call i32 @_cmsReadUInt16Number(ptr noundef %1, ptr noundef nonnull %5) #13
  %.not = icmp eq i32 %9, 0
  br i1 %.not, label %51, label %10

10:                                               ; preds = %4
  %11 = call i32 @_cmsReadUInt16Number(ptr noundef %1, ptr noundef nonnull %6) #13
  %.not34 = icmp eq i32 %11, 0
  br i1 %.not34, label %51, label %12

12:                                               ; preds = %10
  %13 = load i16, ptr %5, align 2
  %14 = add i16 %13, -16
  %or.cond = icmp ult i16 %14, -15
  br i1 %or.cond, label %.thread, label %15

15:                                               ; preds = %12
  %16 = load i16, ptr %6, align 2
  %17 = add i16 %16, -16
  %or.cond5 = icmp ult i16 %17, -15
  br i1 %or.cond5, label %.thread, label %18

18:                                               ; preds = %15
  %19 = getelementptr inbounds i8, ptr %1, i64 280
  %20 = load ptr, ptr %19, align 8
  %21 = call i32 %20(ptr noundef %1, ptr noundef nonnull %7, i32 noundef 1, i32 noundef 16) #13
  %.not35 = icmp eq i32 %21, 16
  br i1 %.not35, label %22, label %.thread

22:                                               ; preds = %18
  %23 = load i16, ptr %5, align 2
  %.not45 = icmp eq i16 %23, 0
  br i1 %.not45, label %._crit_edge, label %.lr.ph.preheader

.lr.ph.preheader:                                 ; preds = %22
  %24 = call i16 @llvm.umin.i16(i16 %23, i16 15)
  %wide.trip.count = zext nneg i16 %24 to i64
  br label %.lr.ph

.lr.ph:                                           ; preds = %.lr.ph.preheader, %28
  %indvars.iv = phi i64 [ 0, %.lr.ph.preheader ], [ %indvars.iv.next, %28 ]
  %25 = getelementptr inbounds [16 x i8], ptr %7, i64 0, i64 %indvars.iv
  %26 = load i8, ptr %25, align 1
  %27 = icmp eq i8 %26, 1
  br i1 %27, label %.thread, label %28

28:                                               ; preds = %.lr.ph
  %29 = zext i8 %26 to i32
  %30 = getelementptr inbounds [15 x i32], ptr %8, i64 0, i64 %indvars.iv
  store i32 %29, ptr %30, align 4
  %indvars.iv.next = add nuw nsw i64 %indvars.iv, 1
  %exitcond.not = icmp eq i64 %indvars.iv.next, %wide.trip.count
  br i1 %exitcond.not, label %._crit_edge, label %.lr.ph, !llvm.loop !90

._crit_edge:                                      ; preds = %28, %22
  %31 = getelementptr inbounds i8, ptr %0, i64 40
  %32 = load ptr, ptr %31, align 8
  %33 = zext i16 %23 to i32
  %34 = load i16, ptr %6, align 2
  %35 = zext i16 %34 to i32
  %36 = call ptr @cmsStageAllocCLutFloatGranular(ptr noundef %32, ptr noundef nonnull %8, i32 noundef %33, i32 noundef %35, ptr noundef null) #13
  %37 = icmp eq ptr %36, null
  br i1 %37, label %.thread, label %38

38:                                               ; preds = %._crit_edge
  %39 = getelementptr inbounds i8, ptr %36, i64 48
  %40 = load ptr, ptr %39, align 8
  %41 = getelementptr inbounds i8, ptr %40, i64 16
  %42 = load i32, ptr %41, align 8
  %.not46 = icmp eq i32 %42, 0
  br i1 %.not46, label %._crit_edge44, label %.lr.ph43

43:                                               ; preds = %.lr.ph43
  %indvars.iv.next49 = add nuw nsw i64 %indvars.iv48, 1
  %44 = load i32, ptr %41, align 8
  %45 = zext i32 %44 to i64
  %46 = icmp ult i64 %indvars.iv.next49, %45
  br i1 %46, label %.lr.ph43, label %._crit_edge44, !llvm.loop !91

.lr.ph43:                                         ; preds = %38, %43
  %indvars.iv48 = phi i64 [ %indvars.iv.next49, %43 ], [ 0, %38 ]
  %47 = load ptr, ptr %40, align 8
  %48 = getelementptr inbounds float, ptr %47, i64 %indvars.iv48
  %49 = call i32 @_cmsReadFloat32Number(ptr noundef %1, ptr noundef %48) #13
  %.not36 = icmp eq i32 %49, 0
  br i1 %.not36, label %50, label %43

._crit_edge44:                                    ; preds = %43, %38
  store i32 1, ptr %2, align 4
  br label %51

.thread:                                          ; preds = %.lr.ph, %12, %15, %18, %._crit_edge
  store i32 0, ptr %2, align 4
  br label %51

50:                                               ; preds = %.lr.ph43
  store i32 0, ptr %2, align 4
  call void @cmsStageFree(ptr noundef nonnull %36) #13
  br label %51

51:                                               ; preds = %.thread, %50, %10, %4, %._crit_edge44
  %.0 = phi ptr [ %36, %._crit_edge44 ], [ null, %4 ], [ null, %10 ], [ null, %50 ], [ null, %.thread ]
  ret ptr %.0
}